; Function Attrs: cold nounwind optsize uwtable
define internal void @dcadec_flush(ptr noundef readonly captures(none) %0) #4 {
  %2 = getelementptr inbounds nuw i8, ptr %0, i64 32
  %3 = load ptr, ptr %2, align 8, !tbaa !4
  %4 = getelementptr inbounds nuw i8, ptr %3, i64 16
  tail call void @ff_dca_core_flush(ptr noundef nonnull %4) #9
  %5 = getelementptr inbounds nuw i8, ptr %3, i64 46512
  tail call void @ff_dca_xll_flush(ptr noundef nonnull %5) #9
  %6 = getelementptr inbounds nuw i8, ptr %3, i64 55536
  tail call void @ff_dca_lbr_flush(ptr noundef nonnull %6) #9
  %7 = getelementptr inbounds nuw i8, ptr %3, i64 77972
  %8 = load i32, ptr %7, align 4, !tbaa !78
  %9 = and i32 %8, 15
  store i32 %9, ptr %7, align 4, !tbaa !78
  ret void
}